target datalayout = "e-m:e-p270:32:32-p271:32:32-p272:64:64-i64:64-i128:128-f80:128-n8:16:32:64-S128"
target triple = "x86_64-unknown-linux-gnu"

%"class.sat::prob" = type { %"class.sat::i_local_search", %"struct.sat::prob::config", %class.reslimit, %"class.sat::clause_allocator", %class.ptr_vector.7, %class.svector.9, %class.svector.11, %class.svector.11, i32, %class.vector.13, %class.svector.5, %class.svector.5, %class.svector.14, %class.svector.14, %class.indexed_uint_set, %class.random_gen, %class.svector.5, i64, i64, i32, [4 x i8], %class.stopwatch, %class.svector.16 }
%"class.sat::i_local_search" = type { ptr }
%"struct.sat::prob::config" = type { i32, i32, double, double }
%class.reslimit = type { %"struct.std::atomic", i8, i64, i64, %class.svector, %class.ptr_vector }
%"struct.std::atomic" = type { %"struct.std::__atomic_base" }
%"struct.std::__atomic_base" = type { i32 }
%class.svector = type { %class.vector }
%class.vector = type { ptr }
%class.ptr_vector = type { %class.vector.0 }
%class.vector.0 = type { ptr }
%"class.sat::clause_allocator" = type { %class.sat_allocator, %class.id_gen }
%class.sat_allocator = type { ptr, i64, %class.ptr_vector.1, ptr, [65 x %class.ptr_vector.3] }
%class.ptr_vector.1 = type { %class.vector.2 }
%class.vector.2 = type { ptr }
%class.ptr_vector.3 = type { %class.vector.4 }
%class.vector.4 = type { ptr }
%class.id_gen = type { i32, %class.svector.5 }
%class.ptr_vector.7 = type { %class.vector.8 }
%class.vector.8 = type { ptr }
%class.svector.9 = type { %class.vector.10 }
%class.vector.10 = type { ptr }
%class.svector.11 = type { %class.vector.12 }
%class.vector.12 = type { ptr }
%class.vector.13 = type { ptr }
%class.svector.14 = type { %class.vector.15 }
%class.vector.15 = type { ptr }
%class.indexed_uint_set = type { i32, %class.svector.5, %class.svector.5 }
%class.random_gen = type { i32 }
%class.svector.5 = type { %class.vector.6 }
%class.vector.6 = type { ptr }
%class.stopwatch = type <{ %"class.std::chrono::time_point", %"class.std::chrono::duration", i8, [7 x i8] }>
%"class.std::chrono::time_point" = type { %"class.std::chrono::duration" }
%"class.std::chrono::duration" = type { i64 }
%class.svector.16 = type { %class.vector.17 }
%class.vector.17 = type { ptr }

; Function Attrs: mustprogress nounwind uwtable
define hidden noundef zeroext i1 @_ZN3sat4prob14should_restartEv(ptr noundef nonnull align 8 dereferenceable(816) %this) #4 align 2 {
entry:
  %this.addr = alloca ptr, align 8
  store ptr %this, ptr %this.addr, align 8
  %this1 = load ptr, ptr %this.addr, align 8
  %m_flips = getelementptr inbounds %"class.sat::prob", ptr %this1, i32 0, i32 17
  %0 = load i64, ptr %m_flips, align 8
  %m_next_restart = getelementptr inbounds %"class.sat::prob", ptr %this1, i32 0, i32 18
  %1 = load i64, ptr %m_next_restart, align 8
  %cmp = icmp uge i64 %0, %1
  ret i1 %cmp
}