; Function Attrs: mustprogress nofree norecurse nosync nounwind willreturn memory(argmem: read) uwtable
define hidden noundef zeroext i1 @_ZN3sat4prob14should_restartEv(ptr nocapture noundef nonnull readonly align 8 dereferenceable(816) %this) local_unnamed_addr #8 align 2 {
entry:
  %m_flips = getelementptr inbounds i8, ptr %this, i64 760
  %0 = load i64, ptr %m_flips, align 8
  %m_next_restart = getelementptr inbounds i8, ptr %this, i64 768
  %1 = load i64, ptr %m_next_restart, align 8
  %cmp = icmp uge i64 %0, %1
  ret i1 %cmp
}